target datalayout = "e-m:e-p270:32:32-p271:32:32-p272:64:64-i64:64-i128:128-f80:128-n8:16:32:64-S128"
target triple = "x86_64-pc-linux-gnu"

%struct.RoleSpec = type { i32, i32, ptr, i32 }

@.str.1 = private unnamed_addr constant [6 x i8] c"acl.c\00", align 1
@.str.31 = private unnamed_addr constant [25 x i8] c"role \22%s\22 does not exist\00", align 1
@.str.32 = private unnamed_addr constant [7 x i8] c"public\00", align 1
@.str.33 = private unnamed_addr constant [24 x i8] c"unexpected role type %d\00", align 1
@__func__.get_rolespec_tuple = private unnamed_addr constant [19 x i8] c"get_rolespec_tuple\00", align 1
@.str.34 = private unnamed_addr constant [32 x i8] c"cache lookup failed for role %u\00", align 1

; Function Attrs: inlinehint nounwind uwtable
define internal i64 @PointerGetDatum(ptr noundef %0) #5 {
  %2 = alloca ptr, align 8
  store ptr %0, ptr %2, align 8
  %3 = load ptr, ptr %2, align 8
  %4 = ptrtoint ptr %3 to i64
  ret i64 %4
}

; Function Attrs: inlinehint nounwind uwtable
define internal i64 @ObjectIdGetDatum(i32 noundef %0) #5 {
  %2 = alloca i32, align 4
  store i32 %0, ptr %2, align 4
  %3 = load i32, ptr %2, align 4
  %4 = zext i32 %3 to i64
  ret i64 %4
}

; Function Attrs: inlinehint nounwind uwtable
define internal i64 @CStringGetDatum(ptr noundef %0) #5 {
  %2 = alloca ptr, align 8
  store ptr %0, ptr %2, align 8
  %3 = load ptr, ptr %2, align 8
  %4 = call i64 @PointerGetDatum(ptr noundef %3)
  ret i64 %4
}

; Function Attrs: nounwind uwtable
define dso_local ptr @get_rolespec_tuple(ptr noundef %0) #0 {
  %2 = alloca ptr, align 8
  %3 = alloca ptr, align 8
  store ptr %0, ptr %2, align 8
  call void @llvm.lifetime.start.p0(i64 8, ptr %3) #9
  %4 = load ptr, ptr %2, align 8
  %5 = getelementptr inbounds nuw %struct.RoleSpec, ptr %4, i32 0, i32 1
  %6 = load i32, ptr %5, align 4
  switch i32 %6, label %81 [
    i32 0, label %7
    i32 1, label %31
    i32 2, label %31
    i32 3, label %50
    i32 4, label %69
  ]

7:                                                ; preds = %1
  %8 = load ptr, ptr %2, align 8
  %9 = getelementptr inbounds nuw %struct.RoleSpec, ptr %8, i32 0, i32 2
  %10 = load ptr, ptr %9, align 8
  %11 = call i64 @CStringGetDatum(ptr noundef %10)
  %12 = call ptr @SearchSysCache1(i32 noundef 10, i64 noundef %11)
  store ptr %12, ptr %3, align 8
  %13 = load ptr, ptr %3, align 8
  %14 = icmp ne ptr %13, null
  br i1 %14, label %30, label %15

15:                                               ; preds = %7
  br label %16

16:                                               ; preds = %15
  br i1 true, label %17, label %19

17:                                               ; preds = %16
  %18 = call zeroext i1 @errstart_cold(i32 noundef 21, ptr noundef null) #10
  br i1 %18, label %21, label %27

19:                                               ; preds = %16
  %20 = call zeroext i1 @errstart(i32 noundef 21, ptr noundef null)
  br i1 %20, label %21, label %27

21:                                               ; preds = %19, %17
  %22 = call i32 @errcode(i32 noundef 67137668)
  %23 = load ptr, ptr %2, align 8
  %24 = getelementptr inbounds nuw %struct.RoleSpec, ptr %23, i32 0, i32 2
  %25 = load ptr, ptr %24, align 8
  %26 = call i32 (ptr, ...) @errmsg(ptr noundef @.str.31, ptr noundef %25)
  call void @errfinish(ptr noundef @.str.1, i32 noundef 5639, ptr noundef @__func__.get_rolespec_tuple)
  br label %27

27:                                               ; preds = %21, %19, %17
  unreachable

28:                                               ; No predecessors!
  br label %29

29:                                               ; preds = %28
  br label %30

30:                                               ; preds = %29, %7
  br label %95

31:                                               ; preds = %1, %1
  %32 = call i32 @GetUserId()
  %33 = call i64 @ObjectIdGetDatum(i32 noundef %32)
  %34 = call ptr @SearchSysCache1(i32 noundef 11, i64 noundef %33)
  store ptr %34, ptr %3, align 8
  %35 = load ptr, ptr %3, align 8
  %36 = icmp ne ptr %35, null
  br i1 %36, label %49, label %37

37:                                               ; preds = %31
  br label %38

38:                                               ; preds = %37
  br i1 true, label %39, label %41

39:                                               ; preds = %38
  %40 = call zeroext i1 @errstart_cold(i32 noundef 21, ptr noundef null) #10
  br i1 %40, label %43, label %46

41:                                               ; preds = %38
  %42 = call zeroext i1 @errstart(i32 noundef 21, ptr noundef null)
  br i1 %42, label %43, label %46

43:                                               ; preds = %41, %39
  %44 = call i32 @GetUserId()
  %45 = call i32 (ptr, ...) @errmsg_internal(ptr noundef @.str.34, i32 noundef %44)
  call void @errfinish(ptr noundef @.str.1, i32 noundef 5646, ptr noundef @__func__.get_rolespec_tuple)
  br label %46

46:                                               ; preds = %43, %41, %39
  unreachable

47:                                               ; No predecessors!
  br label %48

48:                                               ; preds = %47
  br label %49

49:                                               ; preds = %48, %31
  br label %95

50:                                               ; preds = %1
  %51 = call i32 @GetSessionUserId()
  %52 = call i64 @ObjectIdGetDatum(i32 noundef %51)
  %53 = call ptr @SearchSysCache1(i32 noundef 11, i64 noundef %52)
  store ptr %53, ptr %3, align 8
  %54 = load ptr, ptr %3, align 8
  %55 = icmp ne ptr %54, null
  br i1 %55, label %68, label %56

56:                                               ; preds = %50
  br label %57

57:                                               ; preds = %56
  br i1 true, label %58, label %60

58:                                               ; preds = %57
  %59 = call zeroext i1 @errstart_cold(i32 noundef 21, ptr noundef null) #10
  br i1 %59, label %62, label %65

60:                                               ; preds = %57
  %61 = call zeroext i1 @errstart(i32 noundef 21, ptr noundef null)
  br i1 %61, label %62, label %65

62:                                               ; preds = %60, %58
  %63 = call i32 @GetSessionUserId()
  %64 = call i32 (ptr, ...) @errmsg_internal(ptr noundef @.str.34, i32 noundef %63)
  call void @errfinish(ptr noundef @.str.1, i32 noundef 5652, ptr noundef @__func__.get_rolespec_tuple)
  br label %65

65:                                               ; preds = %62, %60, %58
  unreachable

66:                                               ; No predecessors!
  br label %67

67:                                               ; preds = %66
  br label %68

68:                                               ; preds = %67, %50
  br label %95

69:                                               ; preds = %1
  br label %70

70:                                               ; preds = %69
  br i1 true, label %71, label %73

71:                                               ; preds = %70
  %72 = call zeroext i1 @errstart_cold(i32 noundef 21, ptr noundef null) #10
  br i1 %72, label %75, label %78

73:                                               ; preds = %70
  %74 = call zeroext i1 @errstart(i32 noundef 21, ptr noundef null)
  br i1 %74, label %75, label %78

75:                                               ; preds = %73, %71
  %76 = call i32 @errcode(i32 noundef 67137668)
  %77 = call i32 (ptr, ...) @errmsg(ptr noundef @.str.31, ptr noundef @.str.32)
  call void @errfinish(ptr noundef @.str.1, i32 noundef 5658, ptr noundef @__func__.get_rolespec_tuple)
  br label %78

78:                                               ; preds = %75, %73, %71
  unreachable

79:                                               ; No predecessors!
  br label %80

80:                                               ; preds = %79
  store ptr null, ptr %3, align 8
  br label %95

81:                                               ; preds = %1
  br label %82

82:                                               ; preds = %81
  br i1 true, label %83, label %85

83:                                               ; preds = %82
  %84 = call zeroext i1 @errstart_cold(i32 noundef 21, ptr noundef null) #10
  br i1 %84, label %87, label %92

85:                                               ; preds = %82
  %86 = call zeroext i1 @errstart(i32 noundef 21, ptr noundef null)
  br i1 %86, label %87, label %92

87:                                               ; preds = %85, %83
  %88 = load ptr, ptr %2, align 8
  %89 = getelementptr inbounds nuw %struct.RoleSpec, ptr %88, i32 0, i32 1
  %90 = load i32, ptr %89, align 4
  %91 = call i32 (ptr, ...) @errmsg_internal(ptr noundef @.str.33, i32 noundef %90)
  call void @errfinish(ptr noundef @.str.1, i32 noundef 5663, ptr noundef @__func__.get_rolespec_tuple)
  br label %92

92:                                               ; preds = %87, %85, %83
  unreachable

93:                                               ; No predecessors!
  br label %94

94:                                               ; preds = %93
  br label %95

95:                                               ; preds = %94, %80, %68, %49, %30
  %96 = load ptr, ptr %3, align 8
  call void @llvm.lifetime.end.p0(i64 8, ptr %3) #9
  ret ptr %96
}