; Function Attrs: nounwind uwtable
define dso_local nonnull ptr @get_rolespec_tuple(ptr noundef readonly captures(none) %0) local_unnamed_addr #0 {
  %2 = getelementptr inbounds nuw i8, ptr %0, i64 4
  %3 = load i32, ptr %2, align 4
  switch i32 %3, label %34 [
    i32 0, label %4
    i32 1, label %14
    i32 2, label %14
    i32 3, label %22
    i32 4, label %30
  ]

4:                                                ; preds = %1
  %5 = getelementptr inbounds nuw i8, ptr %0, i64 8
  %6 = load ptr, ptr %5, align 8
  %7 = ptrtoint ptr %6 to i64
  %8 = tail call ptr @SearchSysCache1(i32 noundef 10, i64 noundef %7) #14
  %.not12 = icmp eq ptr %8, null
  br i1 %.not12, label %9, label %38

9:                                                ; preds = %4
  %10 = tail call zeroext i1 @errstart_cold(i32 noundef 21, ptr noundef null) #15
  tail call void @llvm.assume(i1 %10)
  %11 = tail call i32 @errcode(i32 noundef 67137668) #14
  %12 = load ptr, ptr %5, align 8
  %13 = tail call i32 (ptr, ...) @errmsg(ptr noundef nonnull @.str.31, ptr noundef %12) #14
  tail call void @errfinish(ptr noundef nonnull @.str.1, i32 noundef 5639, ptr noundef nonnull @__func__.get_rolespec_tuple) #14
  unreachable

14:                                               ; preds = %1, %1
  %15 = tail call i32 @GetUserId() #14
  %16 = zext i32 %15 to i64
  %17 = tail call ptr @SearchSysCache1(i32 noundef 11, i64 noundef %16) #14
  %.not11 = icmp eq ptr %17, null
  br i1 %.not11, label %18, label %38

18:                                               ; preds = %14
  %19 = tail call zeroext i1 @errstart_cold(i32 noundef 21, ptr noundef null) #15
  tail call void @llvm.assume(i1 %19)
  %20 = tail call i32 @GetUserId() #14
  %21 = tail call i32 (ptr, ...) @errmsg_internal(ptr noundef nonnull @.str.34, i32 noundef %20) #14
  tail call void @errfinish(ptr noundef nonnull @.str.1, i32 noundef 5646, ptr noundef nonnull @__func__.get_rolespec_tuple) #14
  unreachable

22:                                               ; preds = %1
  %23 = tail call i32 @GetSessionUserId() #14
  %24 = zext i32 %23 to i64
  %25 = tail call ptr @SearchSysCache1(i32 noundef 11, i64 noundef %24) #14
  %.not = icmp eq ptr %25, null
  br i1 %.not, label %26, label %38

26:                                               ; preds = %22
  %27 = tail call zeroext i1 @errstart_cold(i32 noundef 21, ptr noundef null) #15
  tail call void @llvm.assume(i1 %27)
  %28 = tail call i32 @GetSessionUserId() #14
  %29 = tail call i32 (ptr, ...) @errmsg_internal(ptr noundef nonnull @.str.34, i32 noundef %28) #14
  tail call void @errfinish(ptr noundef nonnull @.str.1, i32 noundef 5652, ptr noundef nonnull @__func__.get_rolespec_tuple) #14
  unreachable

30:                                               ; preds = %1
  %31 = tail call zeroext i1 @errstart_cold(i32 noundef 21, ptr noundef null) #15
  tail call void @llvm.assume(i1 %31)
  %32 = tail call i32 @errcode(i32 noundef 67137668) #14
  %33 = tail call i32 (ptr, ...) @errmsg(ptr noundef nonnull @.str.31, ptr noundef nonnull @.str.32) #14
  tail call void @errfinish(ptr noundef nonnull @.str.1, i32 noundef 5658, ptr noundef nonnull @__func__.get_rolespec_tuple) #14
  unreachable

34:                                               ; preds = %1
  %35 = tail call zeroext i1 @errstart_cold(i32 noundef 21, ptr noundef null) #15
  tail call void @llvm.assume(i1 %35)
  %36 = load i32, ptr %2, align 4
  %37 = tail call i32 (ptr, ...) @errmsg_internal(ptr noundef nonnull @.str.33, i32 noundef %36) #14
  tail call void @errfinish(ptr noundef nonnull @.str.1, i32 noundef 5663, ptr noundef nonnull @__func__.get_rolespec_tuple) #14
  unreachable

38:                                               ; preds = %22, %14, %4
  %.0 = phi ptr [ %25, %22 ], [ %17, %14 ], [ %8, %4 ]
  ret ptr %.0
}